; Function Attrs: mustprogress null_pointer_is_valid sspstrong uwtable
define void @_ZN12RsaKeysFrame27on_deleteItemButton_clickedEv(ptr noundef readonly align 8 captures(none) dereferenceable_or_null(64) %0) local_unnamed_addr #0 align 2 {
  %2 = alloca %class.QModelIndex, align 8
  %3 = alloca %class.QModelIndex, align 8
  call void @llvm.lifetime.start.p0(i64 24, ptr nonnull %2) #19
  %4 = getelementptr inbounds nuw i8, ptr %0, i64 40
  %5 = load ptr, ptr %4, align 8
  %6 = getelementptr inbounds nuw i8, ptr %5, i64 32
  %7 = load ptr, ptr %6, align 8
  call void @_ZNK17QAbstractItemView12currentIndexEv(ptr dead_on_unwind nonnull writable sret(%class.QModelIndex) align 8 %2, ptr noundef align 8 dereferenceable_or_null(40) %7)
  %8 = getelementptr inbounds nuw i8, ptr %0, i64 48
  %9 = load ptr, ptr %8, align 8
  %.not = icmp eq ptr %9, null
  br i1 %.not, label %_ZNK11QModelIndex7isValidEv.exit.thread, label %10

10:                                               ; preds = %1
  %11 = load i32, ptr %2, align 8
  %12 = icmp sgt i32 %11, -1
  %13 = getelementptr inbounds nuw i8, ptr %2, i64 4
  %14 = load i32, ptr %13, align 4
  %15 = icmp sgt i32 %14, -1
  %or.cond = select i1 %12, i1 %15, i1 false
  %16 = getelementptr inbounds nuw i8, ptr %2, i64 16
  %17 = load ptr, ptr %16, align 8
  %18 = icmp ne ptr %17, null
  %or.cond7 = select i1 %or.cond, i1 %18, i1 false
  br i1 %or.cond7, label %19, label %_ZNK11QModelIndex7isValidEv.exit.thread

19:                                               ; preds = %10
  call void @llvm.lifetime.start.p0(i64 24, ptr nonnull %3) #19
  store i32 -1, ptr %3, align 8
  %20 = getelementptr inbounds nuw i8, ptr %3, i64 4
  store i32 -1, ptr %20, align 4
  %21 = getelementptr inbounds nuw i8, ptr %3, i64 8
  call void @llvm.memset.p0.i64(ptr noundef nonnull align 8 dereferenceable(16) %21, i8 0, i64 16, i1 false)
  %22 = load ptr, ptr %9, align 8
  %23 = getelementptr inbounds nuw i8, ptr %22, i64 264
  %24 = load ptr, ptr %23, align 8
  %25 = call noundef zeroext i1 %24(ptr noundef nonnull align 8 dereferenceable_or_null(80) %9, i32 noundef %11, i32 noundef 1, ptr noundef nonnull align 8 dereferenceable(24) %3)
  call void @llvm.lifetime.end.p0(i64 24, ptr nonnull %3) #19
  br label %_ZNK11QModelIndex7isValidEv.exit.thread

_ZNK11QModelIndex7isValidEv.exit.thread:          ; preds = %10, %19, %1
  call void @llvm.lifetime.end.p0(i64 24, ptr nonnull %2) #19
  ret void
}